; Function Attrs: mustprogress nounwind uwtable
define hidden noundef ptr @_ZN11FileMapInfo21skip_first_path_entryEPKc(ptr nocapture noundef nonnull readnone align 8 dereferenceable(40) %0, ptr noundef readonly %1) local_unnamed_addr #0 align 2 {
  %3 = tail call noundef ptr @_ZN2os14path_separatorEv() #25
  %4 = tail call i64 @strlen(ptr noundef nonnull dereferenceable(1) %3) #26
  %5 = tail call noundef ptr @_ZN2os14path_separatorEv() #25
  %6 = tail call noundef ptr @strstr(ptr noundef nonnull dereferenceable(1) %1, ptr noundef nonnull dereferenceable(1) %5) #26
  %.not = icmp eq ptr %6, null
  %7 = getelementptr inbounds i8, ptr %6, i64 %4
  %.0 = select i1 %.not, ptr null, ptr %7
  ret ptr %.0
}